; ModuleID = '10/1031.c'
source_filename = "10/1031.c"
target datalayout = "e-m:e-p270:32:32-p271:32:32-p272:64:64-i64:64-f80:128-n8:16:32:64-S128"
target triple = "x86_64-pc-linux-gnu"

@b = dso_local global [25 x i32] [i32 1, i32 1, i32 1, i32 1, i32 1, i32 1, i32 1, i32 1, i32 1, i32 1, i32 1, i32 1, i32 1, i32 1, i32 1, i32 1, i32 1, i32 1, i32 1, i32 1, i32 1, i32 1, i32 1, i32 1, i32 1], align 16
@n = common dso_local global i32 0, align 4
@a = common dso_local global [25 x i32] zeroinitializer, align 16
@.str = private unnamed_addr constant [3 x i8] c"%d\00", align 1

; Function Attrs: noinline nounwind uwtable
define dso_local i32 @changdu(i32 %0) #0 {
  %2 = alloca i32, align 4
  %3 = alloca i32, align 4
  %4 = alloca i32, align 4
  %5 = alloca i32, align 4
  store i32 %0, i32* %3, align 4
  store i32 1, i32* %5, align 4
  %6 = load i32, i32* %3, align 4
  %7 = sext i32 %6 to i64
  %8 = getelementptr inbounds [25 x i32], [25 x i32]* @b, i64 0, i64 %7
  %9 = load i32, i32* %8, align 4
  %10 = icmp ne i32 %9, 1
  br i1 %10, label %11, label %16

11:                                               ; preds = %1
  %12 = load i32, i32* %3, align 4
  %13 = sext i32 %12 to i64
  %14 = getelementptr inbounds [25 x i32], [25 x i32]* @b, i64 0, i64 %13
  %15 = load i32, i32* %14, align 4
  store i32 %15, i32* %2, align 4
  br label %62

16:                                               ; preds = %1
  %17 = load i32, i32* %3, align 4
  %18 = add nsw i32 %17, 1
  store i32 %18, i32* %4, align 4
  br label %19

19:                                               ; preds = %53, %16
  %20 = load i32, i32* %4, align 4
  %21 = load i32, i32* @n, align 4
  %22 = icmp slt i32 %20, %21
  br i1 %22, label %23, label %56

23:                                               ; preds = %19
  %24 = load i32, i32* %3, align 4
  %25 = sext i32 %24 to i64
  %26 = getelementptr inbounds [25 x i32], [25 x i32]* @a, i64 0, i64 %25
  %27 = load i32, i32* %26, align 4
  %28 = load i32, i32* %4, align 4
  %29 = sext i32 %28 to i64
  %30 = getelementptr inbounds [25 x i32], [25 x i32]* @a, i64 0, i64 %29
  %31 = load i32, i32* %30, align 4
  %32 = icmp sge i32 %27, %31
  br i1 %32, label %33, label %52

33:                                               ; preds = %23
  %34 = load i32, i32* %4, align 4
  %35 = call i32 @changdu(i32 %34)
  %36 = add nsw i32 %35, 1
  %37 = load i32, i32* %3, align 4
  %38 = sext i32 %37 to i64
  %39 = getelementptr inbounds [25 x i32], [25 x i32]* @b, i64 0, i64 %38
  store i32 %36, i32* %39, align 4
  %40 = load i32, i32* %3, align 4
  %41 = sext i32 %40 to i64
  %42 = getelementptr inbounds [25 x i32], [25 x i32]* @b, i64 0, i64 %41
  %43 = load i32, i32* %42, align 4
  %44 = load i32, i32* %5, align 4
  %45 = icmp sgt i32 %43, %44
  br i1 %45, label %46, label %51

46:                                               ; preds = %33
  %47 = load i32, i32* %3, align 4
  %48 = sext i32 %47 to i64
  %49 = getelementptr inbounds [25 x i32], [25 x i32]* @b, i64 0, i64 %48
  %50 = load i32, i32* %49, align 4
  store i32 %50, i32* %5, align 4
  br label %51

51:                                               ; preds = %46, %33
  br label %52

52:                                               ; preds = %51, %23
  br label %53

53:                                               ; preds = %52
  %54 = load i32, i32* %4, align 4
  %55 = add nsw i32 %54, 1
  store i32 %55, i32* %4, align 4
  br label %19

56:                                               ; preds = %19
  %57 = load i32, i32* %5, align 4
  %58 = load i32, i32* %3, align 4
  %59 = sext i32 %58 to i64
  %60 = getelementptr inbounds [25 x i32], [25 x i32]* @b, i64 0, i64 %59
  store i32 %57, i32* %60, align 4
  %61 = load i32, i32* %5, align 4
  store i32 %61, i32* %2, align 4
  br label %62

62:                                               ; preds = %56, %11
  %63 = load i32, i32* %2, align 4
  ret i32 %63
}

; Function Attrs: noinline nounwind uwtable
define dso_local i32 @main() #0 {
  %1 = alloca i32, align 4
  %2 = alloca i32, align 4
  %3 = alloca i32, align 4
  store i32 0, i32* %1, align 4
  store i32 0, i32* %2, align 4
  %4 = call i32 (i8*, ...) @__isoc99_scanf(i8* getelementptr inbounds ([3 x i8], [3 x i8]* @.str, i64 0, i64 0), i32* @n)
  store i32 0, i32* %3, align 4
  br label %5

5:                                                ; preds = %14, %0
  %6 = load i32, i32* %3, align 4
  %7 = load i32, i32* @n, align 4
  %8 = icmp slt i32 %6, %7
  br i1 %8, label %9, label %17

9:                                                ; preds = %5
  %10 = load i32, i32* %3, align 4
  %11 = sext i32 %10 to i64
  %12 = getelementptr inbounds [25 x i32], [25 x i32]* @a, i64 0, i64 %11
  %13 = call i32 (i8*, ...) @__isoc99_scanf(i8* getelementptr inbounds ([3 x i8], [3 x i8]* @.str, i64 0, i64 0), i32* %12)
  br label %14

14:                                               ; preds = %9
  %15 = load i32, i32* %3, align 4
  %16 = add nsw i32 %15, 1
  store i32 %16, i32* %3, align 4
  br label %5

17:                                               ; preds = %5
  store i32 0, i32* %3, align 4
  br label %18

18:                                               ; preds = %28, %17
  %19 = load i32, i32* %3, align 4
  %20 = load i32, i32* @n, align 4
  %21 = icmp slt i32 %19, %20
  br i1 %21, label %22, label %31

22:                                               ; preds = %18
  %23 = load i32, i32* %3, align 4
  %24 = call i32 @changdu(i32 %23)
  %25 = load i32, i32* %3, align 4
  %26 = sext i32 %25 to i64
  %27 = getelementptr inbounds [25 x i32], [25 x i32]* @b, i64 0, i64 %26
  store i32 %24, i32* %27, align 4
  br label %28

28:                                               ; preds = %22
  %29 = load i32, i32* %3, align 4
  %30 = add nsw i32 %29, 1
  store i32 %30, i32* %3, align 4
  br label %18

31:                                               ; preds = %18
  store i32 0, i32* %3, align 4
  br label %32

32:                                               ; preds = %49, %31
  %33 = load i32, i32* %3, align 4
  %34 = load i32, i32* @n, align 4
  %35 = icmp slt i32 %33, %34
  br i1 %35, label %36, label %52

36:                                               ; preds = %32
  %37 = load i32, i32* %3, align 4
  %38 = sext i32 %37 to i64
  %39 = getelementptr inbounds [25 x i32], [25 x i32]* @b, i64 0, i64 %38
  %40 = load i32, i32* %39, align 4
  %41 = load i32, i32* %2, align 4
  %42 = icmp sgt i32 %40, %41
  br i1 %42, label %43, label %48

43:                                               ; preds = %36
  %44 = load i32, i32* %3, align 4
  %45 = sext i32 %44 to i64
  %46 = getelementptr inbounds [25 x i32], [25 x i32]* @b, i64 0, i64 %45
  %47 = load i32, i32* %46, align 4
  store i32 %47, i32* %2, align 4
  br label %48

48:                                               ; preds = %43, %36
  br label %49

49:                                               ; preds = %48
  %50 = load i32, i32* %3, align 4
  %51 = add nsw i32 %50, 1
  store i32 %51, i32* %3, align 4
  br label %32

52:                                               ; preds = %32
  %53 = load i32, i32* %2, align 4
  %54 = call i32 (i8*, ...) @printf(i8* getelementptr inbounds ([3 x i8], [3 x i8]* @.str, i64 0, i64 0), i32 %53)
  %55 = load i32, i32* %1, align 4
  ret i32 %55
}

declare dso_local i32 @__isoc99_scanf(i8*, ...) #1

declare dso_local i32 @printf(i8*, ...) #1


!llvm.module.flags = !{!0}
!llvm.ident = !{!1}

!0 = !{i32 1, !"wchar_size", i32 4}
!1 = !{!"clang version 10.0.0-4ubuntu1 "}
